target datalayout = "e-m:e-p270:32:32-p271:32:32-p272:64:64-i64:64-i128:128-f80:128-n8:16:32:64-S128"
target triple = "x86_64-pc-linux-gnu"

%struct.ObjectAddress = type { i32, i32, i32 }
%struct.ScanKeyData = type { i32, i16, i16, i32, i32, %struct.FmgrInfo, i64 }
%struct.FmgrInfo = type { ptr, i32, i16, i8, i8, i8, ptr, ptr, ptr }
%struct.HeapTupleData = type { i32, %struct.ItemPointerData, i32, ptr }
%struct.ItemPointerData = type { %struct.BlockIdData, i16 }
%struct.BlockIdData = type { i16, i16 }

; Function Attrs: inlinehint nounwind uwtable
define internal i64 @Int32GetDatum(i32 noundef %0) #4 {
  %2 = alloca i32, align 4
  store i32 %0, ptr %2, align 4
  %3 = load i32, ptr %2, align 4
  %4 = sext i32 %3 to i64
  ret i64 %4
}

; Function Attrs: inlinehint nounwind uwtable
define internal i64 @ObjectIdGetDatum(i32 noundef %0) #4 {
  %2 = alloca i32, align 4
  store i32 %0, ptr %2, align 4
  %3 = load i32, ptr %2, align 4
  %4 = zext i32 %3 to i64
  ret i64 %4
}

; Function Attrs: nounwind uwtable
define dso_local void @DeleteSecurityLabel(ptr noundef %0) #0 {
  %2 = alloca ptr, align 8
  %3 = alloca ptr, align 8
  %4 = alloca [3 x %struct.ScanKeyData], align 16
  %5 = alloca ptr, align 8
  %6 = alloca ptr, align 8
  %7 = alloca i32, align 4
  %8 = alloca i32, align 4
  store ptr %0, ptr %2, align 8
  call void @llvm.lifetime.start.p0(i64 8, ptr %3) #8
  call void @llvm.lifetime.start.p0(i64 216, ptr %4) #8
  call void @llvm.lifetime.start.p0(i64 8, ptr %5) #8
  call void @llvm.lifetime.start.p0(i64 8, ptr %6) #8
  call void @llvm.lifetime.start.p0(i64 4, ptr %7) #8
  %9 = load ptr, ptr %2, align 8
  %10 = getelementptr inbounds nuw %struct.ObjectAddress, ptr %9, i32 0, i32 0
  %11 = load i32, ptr %10, align 4
  %12 = call zeroext i1 @IsSharedRelation(i32 noundef %11)
  br i1 %12, label %13, label %20

13:                                               ; preds = %1
  %14 = load ptr, ptr %2, align 8
  %15 = getelementptr inbounds nuw %struct.ObjectAddress, ptr %14, i32 0, i32 1
  %16 = load i32, ptr %15, align 4
  %17 = load ptr, ptr %2, align 8
  %18 = getelementptr inbounds nuw %struct.ObjectAddress, ptr %17, i32 0, i32 0
  %19 = load i32, ptr %18, align 4
  call void @DeleteSharedSecurityLabel(i32 noundef %16, i32 noundef %19)
  store i32 1, ptr %8, align 4
  br label %59

20:                                               ; preds = %1
  %21 = getelementptr inbounds [3 x %struct.ScanKeyData], ptr %4, i64 0, i64 0
  %22 = load ptr, ptr %2, align 8
  %23 = getelementptr inbounds nuw %struct.ObjectAddress, ptr %22, i32 0, i32 1
  %24 = load i32, ptr %23, align 4
  %25 = call i64 @ObjectIdGetDatum(i32 noundef %24)
  call void @ScanKeyInit(ptr noundef %21, i16 noundef signext 1, i16 noundef zeroext 3, i32 noundef 184, i64 noundef %25)
  %26 = getelementptr inbounds [3 x %struct.ScanKeyData], ptr %4, i64 0, i64 1
  %27 = load ptr, ptr %2, align 8
  %28 = getelementptr inbounds nuw %struct.ObjectAddress, ptr %27, i32 0, i32 0
  %29 = load i32, ptr %28, align 4
  %30 = call i64 @ObjectIdGetDatum(i32 noundef %29)
  call void @ScanKeyInit(ptr noundef %26, i16 noundef signext 2, i16 noundef zeroext 3, i32 noundef 184, i64 noundef %30)
  %31 = load ptr, ptr %2, align 8
  %32 = getelementptr inbounds nuw %struct.ObjectAddress, ptr %31, i32 0, i32 2
  %33 = load i32, ptr %32, align 4
  %34 = icmp ne i32 %33, 0
  br i1 %34, label %35, label %41

35:                                               ; preds = %20
  %36 = getelementptr inbounds [3 x %struct.ScanKeyData], ptr %4, i64 0, i64 2
  %37 = load ptr, ptr %2, align 8
  %38 = getelementptr inbounds nuw %struct.ObjectAddress, ptr %37, i32 0, i32 2
  %39 = load i32, ptr %38, align 4
  %40 = call i64 @Int32GetDatum(i32 noundef %39)
  call void @ScanKeyInit(ptr noundef %36, i16 noundef signext 3, i16 noundef zeroext 3, i32 noundef 65, i64 noundef %40)
  store i32 3, ptr %7, align 4
  br label %42

41:                                               ; preds = %20
  store i32 2, ptr %7, align 4
  br label %42

42:                                               ; preds = %41, %35
  %43 = call ptr @table_open(i32 noundef 3596, i32 noundef 3)
  store ptr %43, ptr %3, align 8
  %44 = load ptr, ptr %3, align 8
  %45 = load i32, ptr %7, align 4
  %46 = getelementptr inbounds [3 x %struct.ScanKeyData], ptr %4, i64 0, i64 0
  %47 = call ptr @systable_beginscan(ptr noundef %44, i32 noundef 3597, i1 noundef zeroext true, ptr noundef null, i32 noundef %45, ptr noundef %46)
  store ptr %47, ptr %5, align 8
  br label %48

48:                                               ; preds = %52, %42
  %49 = load ptr, ptr %5, align 8
  %50 = call ptr @systable_getnext(ptr noundef %49)
  store ptr %50, ptr %6, align 8
  %51 = icmp ne ptr %50, null
  br i1 %51, label %52, label %56

52:                                               ; preds = %48
  %53 = load ptr, ptr %3, align 8
  %54 = load ptr, ptr %6, align 8
  %55 = getelementptr inbounds nuw %struct.HeapTupleData, ptr %54, i32 0, i32 1
  call void @CatalogTupleDelete(ptr noundef %53, ptr noundef %55)
  br label %48, !llvm.loop !9

56:                                               ; preds = %48
  %57 = load ptr, ptr %5, align 8
  call void @systable_endscan(ptr noundef %57)
  %58 = load ptr, ptr %3, align 8
  call void @table_close(ptr noundef %58, i32 noundef 3)
  store i32 0, ptr %8, align 4
  br label %59

59:                                               ; preds = %56, %13
  call void @llvm.lifetime.end.p0(i64 4, ptr %7) #8
  call void @llvm.lifetime.end.p0(i64 8, ptr %6) #8
  call void @llvm.lifetime.end.p0(i64 8, ptr %5) #8
  call void @llvm.lifetime.end.p0(i64 216, ptr %4) #8
  call void @llvm.lifetime.end.p0(i64 8, ptr %3) #8
  %60 = load i32, ptr %8, align 4
  switch i32 %60, label %62 [
    i32 0, label %61
    i32 1, label %61
  ]

61:                                               ; preds = %59, %59
  ret void

62:                                               ; preds = %59
  unreachable
}