; Function Attrs: nounwind uwtable
define dso_local void @DeleteSecurityLabel(ptr noundef readonly captures(none) %0) local_unnamed_addr #0 {
  %2 = alloca [3 x %struct.ScanKeyData], align 16
  call void @llvm.lifetime.start.p0(i64 216, ptr nonnull %2) #8
  %3 = load i32, ptr %0, align 4
  %4 = tail call zeroext i1 @IsSharedRelation(i32 noundef %3) #8
  %5 = getelementptr inbounds nuw i8, ptr %0, i64 4
  %6 = load i32, ptr %5, align 4
  br i1 %4, label %7, label %9

7:                                                ; preds = %1
  %8 = load i32, ptr %0, align 4
  tail call void @DeleteSharedSecurityLabel(i32 noundef %6, i32 noundef %8)
  br label %26

9:                                                ; preds = %1
  %10 = zext i32 %6 to i64
  call void @ScanKeyInit(ptr noundef nonnull %2, i16 noundef signext 1, i16 noundef zeroext 3, i32 noundef 184, i64 noundef %10) #8
  %11 = getelementptr inbounds nuw i8, ptr %2, i64 72
  %12 = load i32, ptr %0, align 4
  %13 = zext i32 %12 to i64
  call void @ScanKeyInit(ptr noundef nonnull %11, i16 noundef signext 2, i16 noundef zeroext 3, i32 noundef 184, i64 noundef %13) #8
  %14 = getelementptr inbounds nuw i8, ptr %0, i64 8
  %15 = load i32, ptr %14, align 4
  %.not = icmp eq i32 %15, 0
  br i1 %.not, label %19, label %16

16:                                               ; preds = %9
  %17 = getelementptr inbounds nuw i8, ptr %2, i64 144
  %18 = sext i32 %15 to i64
  call void @ScanKeyInit(ptr noundef nonnull %17, i16 noundef signext 3, i16 noundef zeroext 3, i32 noundef 65, i64 noundef %18) #8
  br label %19

19:                                               ; preds = %9, %16
  %.0 = phi i32 [ 3, %16 ], [ 2, %9 ]
  %20 = call ptr @table_open(i32 noundef 3596, i32 noundef 3) #8
  %21 = call ptr @systable_beginscan(ptr noundef %20, i32 noundef 3597, i1 noundef zeroext true, ptr noundef null, i32 noundef %.0, ptr noundef nonnull %2) #8
  %22 = call ptr @systable_getnext(ptr noundef %21) #8
  %.not1516 = icmp eq ptr %22, null
  br i1 %.not1516, label %._crit_edge, label %.lr.ph

.lr.ph:                                           ; preds = %19, %.lr.ph
  %23 = phi ptr [ %25, %.lr.ph ], [ %22, %19 ]
  %24 = getelementptr inbounds nuw i8, ptr %23, i64 4
  call void @CatalogTupleDelete(ptr noundef %20, ptr noundef nonnull %24) #8
  %25 = call ptr @systable_getnext(ptr noundef %21) #8
  %.not15 = icmp eq ptr %25, null
  br i1 %.not15, label %._crit_edge, label %.lr.ph, !llvm.loop !8

._crit_edge:                                      ; preds = %.lr.ph, %19
  call void @systable_endscan(ptr noundef %21) #8
  call void @table_close(ptr noundef %20, i32 noundef 3) #8
  br label %26

26:                                               ; preds = %._crit_edge, %7
  call void @llvm.lifetime.end.p0(i64 216, ptr nonnull %2) #8
  ret void
}